(ilandmark_map
Map
p0
(dp1
S'height'
p2
I100
sS'landmarks'
p3
(lp4
(ilandmark_map
Landmark
p5
(dp6
S'size'
p7
F2.264629363419628
sg2
F6.9121658398446435
sS'marker'
p8
S'^'
p9
sS'points'
p10
(lp11
(lp12
I47
aI48
aa(lp13
I57
aI58
aasS'shape'
p14
S'tree'
p15
sS'estimated_size'
p16
S'small'
p17
sS'location1'
p18
(I47
I57
tp19
sS'location2'
p20
(F49.26462936341963
F59.26462936341963
tp21
sS'estimated_height'
p22
S'tall'
p23
sS'color'
p24
S'green'
p25
sS'center'
p26
(lp27
F48.132314681709815
aF58.132314681709815
asba(ilandmark_map
Landmark
p28
(dp29
g7
F5.228296179634162
sg2
F4.994157029514593
sg8
g9
sg10
(lp30
(lp31
I80
aI81
aI82
aI83
aI84
aa(lp32
I61
aI62
aI63
aI64
aI65
aasg14
g15
sg16
S'medium'
p33
sg18
(I80
I61
tp34
sg20
(F85.22829617963416
F66.22829617963416
tp35
sg22
g23
sg24
g25
sg26
(lp36
F82.61414808981708
aF63.61414808981708
asba(ilandmark_map
Landmark
p37
(dp38
g7
F5.674601944556988
sg2
F3.8839365323570196
sg8
g9
sg10
(lp39
(lp40
I6
aI7
aI8
aI9
aI10
aI11
aa(lp41
I33
aI34
aI35
aI36
aI37
aI38
aasg14
g15
sg16
S'large'
p42
sg18
(I6
I33
tp43
sg20
(F11.674601944556988
F38.67460194455699
tp44
sg22
S'average'
p45
sg24
S'blue'
p46
sg26
(lp47
F8.837300972278495
aF35.83730097227849
asba(ilandmark_map
Landmark
p48
(dp49
g7
F6.06549207327085
sg2
F3.488370922941069
sg8
g9
sg10
(lp50
(lp51
I37
aI38
aI39
aI40
aI41
aI42
aa(lp52
I65
aI66
aI67
aI68
aI69
aI70
aasg14
g15
sg16
g42
sg18
(I37
I65
tp53
sg20
(F43.065492073270846
F71.06549207327085
tp54
sg22
S'short'
p55
sg24
g25
sg26
(lp56
F40.03274603663542
aF68.03274603663543
asba(ilandmark_map
Landmark
p57
(dp58
g7
F5.013547600157203
sg2
F8.304097775363353
sg8
g9
sg10
(lp59
(lp60
I57
aI58
aI59
aI60
aI61
aa(lp61
I56
aI57
aI58
aI59
aI60
aasg14
g15
sg16
g33
sg18
(I57
I56
tp62
sg20
(F62.0135476001572
F61.0135476001572
tp63
sg22
g23
sg24
g25
sg26
(lp64
F59.506773800078605
aF58.506773800078605
asba(ilandmark_map
Landmark
p65
(dp66
g7
F4.725586955883127
sg2
I1
sg8
S'o'
p67
sg10
(lp68
(lp69
I34
aI35
aI36
aI37
aI38
aa(lp70
I73
aI74
aI75
aI76
aI77
aasg14
S'pond'
p71
sg16
g33
sg18
(I34
I73
tp72
sg20
(F38.72558695588313
F77.72558695588313
tp73
sg22
g55
sg24
g25
sg26
(lp74
F36.362793477941565
aF75.36279347794157
asba(ilandmark_map
Landmark
p75
(dp76
g7
F5.5302006308107625
sg2
F5.559188100087393
sg8
g9
sg10
(lp77
(lp78
I40
aI41
aI42
aI43
aI44
aI45
aa(lp79
I60
aI61
aI62
aI63
aI64
aI65
aasg14
g15
sg16
g42
sg18
(I40
I60
tp80
sg20
(F45.53020063081076
F65.53020063081077
tp81
sg22
g23
sg24
g25
sg26
(lp82
F42.765100315405384
aF62.765100315405384
asba(ilandmark_map
Landmark
p83
(dp84
g7
F4.964119881531365
sg2
I1
sg8
g67
sg10
(lp85
(lp86
I82
aI83
aI84
aI85
aI86
aa(lp87
I53
aI54
aI55
aI56
aI57
aasg14
g71
sg16
g33
sg18
(I82
I53
tp88
sg20
(F86.96411988153136
F57.96411988153137
tp89
sg22
g55
sg24
g46
sg26
(lp90
F84.48205994076568
aF55.48205994076568
asba(ilandmark_map
Landmark
p91
(dp92
g7
F7.702166302165754
sg2
F3.629049948042314
sg8
g9
sg10
(lp93
(lp94
I79
aI80
aI81
aI82
aI83
aI84
aI85
aI86
aa(lp95
I9
aI10
aI11
aI12
aI13
aI14
aI15
aI16
aasg14
g15
sg16
g42
sg18
(I79
I9
tp96
sg20
(F86.70216630216575
F16.702166302165754
tp97
sg22
g45
sg24
g25
sg26
(lp98
F82.85108315108288
aF12.851083151082877
asba(ilandmark_map
Landmark
p99
(dp100
g7
I1
sg2
F6.7811036766215365
sg8
g9
sg10
(lp101
(lp102
I56
aa(lp103
I75
aasg14
g15
sg16
g17
sg18
(I56
I75
tp104
sg20
(I57
I76
tp105
sg22
g23
sg24
g46
sg26
(lp106
F56.5
aF75.5
asba(ilandmark_map
Landmark
p107
(dp108
g7
F3.0262238742494745
sg2
F9.074216919358541
sg8
g9
sg10
(lp109
(lp110
I55
aI56
aI57
aa(lp111
I34
aI35
aI36
aasg14
g15
sg16
g17
sg18
(I55
I34
tp112
sg20
(F58.026223874249474
F37.026223874249474
tp113
sg22
g23
sg24
g46
sg26
(lp114
F56.513111937124734
aF35.513111937124734
asba(ilandmark_map
Landmark
p115
(dp116
g7
F3.0618147291328355
sg2
F8.070950693241995
sg8
g9
sg10
(lp117
(lp118
I90
aI91
aI92
aa(lp119
I17
aI18
aI19
aasg14
g15
sg16
g17
sg18
(I90
I17
tp120
sg20
(F93.06181472913283
F20.061814729132834
tp121
sg22
g23
sg24
g25
sg26
(lp122
F91.53090736456642
aF18.530907364566417
asba(ilandmark_map
Landmark
p123
(dp124
g7
F6.941540770984731
sg2
F1.8011994402401386
sg8
g9
sg10
(lp125
(lp126
I37
aI38
aI39
aI40
aI41
aI42
aI43
aa(lp127
I11
aI12
aI13
aI14
aI15
aI16
aI17
aasg14
g15
sg16
g42
sg18
(I37
I11
tp128
sg20
(F43.94154077098473
F17.94154077098473
tp129
sg22
g55
sg24
g25
sg26
(lp130
F40.470770385492365
aF14.470770385492365
asba(ilandmark_map
Landmark
p131
(dp132
g7
F2.6085473214065202
sg2
I1
sg8
g67
sg10
(lp133
(lp134
I32
aI33
aI34
aa(lp135
I52
aI53
aI54
aasg14
g71
sg16
g17
sg18
(I32
I52
tp136
sg20
(F34.60854732140652
F54.60854732140652
tp137
sg22
g55
sg24
g25
sg26
(lp138
F33.30427366070326
aF53.30427366070326
asba(ilandmark_map
Landmark
p139
(dp140
g7
F5.5620203149094785
sg2
F3.64915265626326
sg8
g9
sg10
(lp141
(lp142
I14
aI15
aI16
aI17
aI18
aI19
aa(lp143
I15
aI16
aI17
aI18
aI19
aI20
aasg14
g15
sg16
g42
sg18
(I14
I15
tp144
sg20
(F19.56202031490948
F20.56202031490948
tp145
sg22
g45
sg24
g25
sg26
(lp146
F16.781010157454737
aF17.781010157454737
asba(ilandmark_map
Landmark
p147
(dp148
g7
F5.388149069853686
sg2
F6.532575581380239
sg8
g9
sg10
(lp149
(lp150
I11
aI12
aI13
aI14
aI15
aa(lp151
I69
aI70
aI71
aI72
aI73
aasg14
g15
sg16
g42
sg18
(I11
I69
tp152
sg20
(F16.388149069853686
F74.38814906985368
tp153
sg22
g23
sg24
g46
sg26
(lp154
F13.694074534926843
aF71.69407453492684
asba(ilandmark_map
Landmark
p155
(dp156
g7
F8.706741146110893
sg2
I1
sg8
g67
sg10
(lp157
(lp158
I26
aI27
aI28
aI29
aI30
aI31
aI32
aI33
aI34
aa(lp159
I14
aI15
aI16
aI17
aI18
aI19
aI20
aI21
aI22
aasg14
g71
sg16
g42
sg18
(I26
I14
tp160
sg20
(F34.70674114611089
F22.706741146110893
tp161
sg22
g55
sg24
g25
sg26
(lp162
F30.353370573055447
aF18.353370573055447
asba(ilandmark_map
Landmark
p163
(dp164
g7
F2.9168793742702723
sg2
I1
sg8
g67
sg10
(lp165
(lp166
I82
aI83
aI84
aa(lp167
I71
aI72
aI73
aasg14
g71
sg16
g17
sg18
(I82
I71
tp168
sg20
(F84.91687937427027
F73.91687937427027
tp169
sg22
g55
sg24
g25
sg26
(lp170
F83.45843968713514
aF72.45843968713514
asba(ilandmark_map
Landmark
p171
(dp172
g7
F4.240597731843432
sg2
F3.6332002939660657
sg8
g9
sg10
(lp173
(lp174
I51
aI52
aI53
aI54
aa(lp175
I65
aI66
aI67
aI68
aasg14
g15
sg16
g33
sg18
(I51
I65
tp176
sg20
(F55.24059773184343
F69.24059773184344
tp177
sg22
g45
sg24
g25
sg26
(lp178
F53.12029886592172
aF67.12029886592171
asba(ilandmark_map
Landmark
p179
(dp180
g7
F4.915098243880729
sg2
F1.4350573624332923
sg8
g9
sg10
(lp181
(lp182
I74
aI75
aI76
aI77
aI78
aa(lp183
I3
aI4
aI5
aI6
aI7
aasg14
g15
sg16
g33
sg18
(I74
I3
tp184
sg20
(F78.91509824388073
F7.915098243880729
tp185
sg22
g55
sg24
g25
sg26
(lp186
F76.45754912194036
aF5.457549121940365
asba(ilandmark_map
Landmark
p187
(dp188
g7
F6.029946790263077
sg2
F3.5432200080987055
sg8
g9
sg10
(lp189
(lp190
I37
aI38
aI39
aI40
aI41
aI42
aa(lp191
I68
aI69
aI70
aI71
aI72
aI73
aasg14
g15
sg16
g42
sg18
(I37
I68
tp192
sg20
(F43.029946790263075
F74.02994679026308
tp193
sg22
g45
sg24
g46
sg26
(lp194
F40.01497339513154
aF71.01497339513153
asba(ilandmark_map
Landmark
p195
(dp196
g7
F1.6282241965578725
sg2
F4.842396593575066
sg8
g9
sg10
(lp197
(lp198
I65
aI66
aa(lp199
I82
aI83
aasg14
g15
sg16
g17
sg18
(I65
I82
tp200
sg20
(F66.62822419655787
F83.62822419655787
tp201
sg22
g45
sg24
g25
sg26
(lp202
F65.81411209827894
aF82.81411209827894
asba(ilandmark_map
Landmark
p203
(dp204
g7
F4.335907733193948
sg2
F8.144357936783363
sg8
g9
sg10
(lp205
(lp206
I25
aI26
aI27
aI28
aa(lp207
I8
aI9
aI10
aI11
aasg14
g15
sg16
g33
sg18
(I25
I8
tp208
sg20
(F29.33590773319395
F12.335907733193949
tp209
sg22
g23
sg24
g25
sg26
(lp210
F27.167953866596974
aF10.167953866596974
asba(ilandmark_map
Landmark
p211
(dp212
g7
F5.742947126035363
sg2
F4.048384998329055
sg8
g9
sg10
(lp213
(lp214
I58
aI59
aI60
aI61
aI62
aI63
aa(lp215
I2
aI3
aI4
aI5
aI6
aI7
aasg14
g15
sg16
g42
sg18
(I58
I2
tp216
sg20
(F63.74294712603536
F7.742947126035363
tp217
sg22
g45
sg24
g46
sg26
(lp218
F60.87147356301768
aF4.871473563017681
asba(ilandmark_map
Landmark
p219
(dp220
g7
F2.133989254603538
sg2
F4.59518042008314
sg8
g9
sg10
(lp221
(lp222
I74
aI75
aa(lp223
I30
aI31
aasg14
g15
sg16
g17
sg18
(I74
I30
tp224
sg20
(F76.13398925460353
F32.133989254603534
tp225
sg22
g45
sg24
g25
sg26
(lp226
F75.06699462730177
aF31.066994627301767
asba(ilandmark_map
Landmark
p227
(dp228
g7
F1.7092180868287263
sg2
F7.83654261200518
sg8
g9
sg10
(lp229
(lp230
I51
aI52
aa(lp231
I89
aI90
aasg14
g15
sg16
g17
sg18
(I51
I89
tp232
sg20
(F52.70921808682873
F90.70921808682873
tp233
sg22
g23
sg24
g25
sg26
(lp234
F51.854609043414364
aF89.85460904341436
asba(ilandmark_map
Landmark
p235
(dp236
g7
F5.218050604785187
sg2
F4.179740139050174
sg8
g9
sg10
(lp237
(lp238
I87
aI88
aI89
aI90
aI91
aa(lp239
I29
aI30
aI31
aI32
aI33
aasg14
g15
sg16
g33
sg18
(I87
I29
tp240
sg20
(F92.21805060478519
F34.21805060478519
tp241
sg22
g45
sg24
g25
sg26
(lp242
F89.6090253023926
aF31.609025302392595
asba(ilandmark_map
Landmark
p243
(dp244
g7
F3.8087438492391508
sg2
I1
sg8
g67
sg10
(lp245
(lp246
I44
aI45
aI46
aI47
aa(lp247
I46
aI47
aI48
aI49
aasg14
g71
sg16
g33
sg18
(I44
I46
tp248
sg20
(F47.80874384923915
F49.80874384923915
tp249
sg22
g55
sg24
g25
sg26
(lp250
F45.904371924619575
aF47.904371924619575
asbasS'width'
p251
I100
sb.