(ilandmark_map
Map
p0
(dp1
S'width'
p2
I100
sS'landmarks'
p3
(lp4
(ilandmark_map
Landmark
p5
(dp6
S'center'
p7
(lp8
F22.267486490092452
aF53.26748649009245
asS'color'
p9
S'blue'
p10
sS'estimated_height'
p11
S'short'
p12
sS'location2'
p13
(F23.534972980184904
F54.534972980184904
tp14
sS'height'
p15
I1
sS'estimated_size'
p16
S'small'
p17
sS'shape'
p18
S'pond'
p19
sS'points'
p20
(lp21
(lp22
I21
aI22
aI23
aa(lp23
I52
aI53
aI54
aasS'marker'
p24
S'o'
p25
sS'location1'
p26
(I21
I52
tp27
sS'size'
p28
F2.5349729801849032
sba(ilandmark_map
Landmark
p29
(dp30
g7
(lp31
F16.47452038006743
aF34.47452038006743
asg9
S'red'
p32
sg11
g12
sg13
(F21.949040760134856
F39.94904076013486
tp33
sg15
I1
sg16
S'large'
p34
sg18
g19
sg20
(lp35
(lp36
I11
aI12
aI13
aI14
aI15
aI16
aI17
aI18
aI19
aI20
aI21
aa(lp37
I29
aI30
aI31
aI32
aI33
aI34
aI35
aI36
aI37
aI38
aI39
aasg24
g25
sg26
(I11
I29
tp38
sg28
F10.949040760134858
sba(ilandmark_map
Landmark
p39
(dp40
g7
(lp41
F43.98585402069375
aF2.9858540206937496
asg9
S'yellow'
p42
sg11
S'average'
p43
sg13
(F44.9717080413875
F3.9717080413874997
tp44
sg15
I1
sg16
g17
sg18
g19
sg20
(lp45
(lp46
I43
aI44
aa(lp47
I2
aI3
aasg24
g25
sg26
(I43
I2
tp48
sg28
F1.9717080413874997
sba(ilandmark_map
Landmark
p49
(dp50
g7
(lp51
F38.479014498761394
aF79.47901449876139
asg9
g10
sg11
Nsg13
(F39.95802899752279
F80.95802899752279
tp52
sg15
F3.0018781753657713
sg16
Nsg18
S'tree'
p53
sg20
(lp54
(lp55
I37
aI38
aI39
aa(lp56
I78
aI79
aI80
aasg24
S'^'
p57
sg26
(I37
I78
tp58
sg28
F2.9580289975227863
sba(ilandmark_map
Landmark
p59
(dp60
g7
(lp61
F37.06623470095516
aF83.06623470095516
asg9
S'green'
p62
sg11
Nsg13
(F40.13246940191031
F86.13246940191031
tp63
sg15
F3.865619336242486
sg16
Nsg18
g53
sg20
(lp64
(lp65
I34
aI35
aI36
aI37
aI38
aI39
aa(lp66
I80
aI81
aI82
aI83
aI84
aI85
aasg24
g57
sg26
(I34
I80
tp67
sg28
F6.132469401910316
sba(ilandmark_map
Landmark
p68
(dp69
g7
(lp70
F72.01527555831107
aF16.015275558311078
asg9
g32
sg11
S'tall'
p71
sg13
(F75.03055111662215
F19.030551116622153
tp72
sg15
F7.22230603666859
sg16
S'medium'
p73
sg18
S'cabin'
p74
sg20
(lp75
(lp76
I69
aI70
aI71
aI72
aI73
aI74
aa(lp77
I13
aI14
aI15
aI16
aI17
aI18
aasg24
S's'
p78
sg26
(I69
I13
tp79
sg28
F6.030551116622154
sba(ilandmark_map
Landmark
p80
(dp81
g7
(lp82
F91.97282543720178
aF17.972825437201784
asg9
g62
sg11
Nsg13
(F93.94565087440357
F19.94565087440357
tp83
sg15
F2.787864672869888
sg16
Nsg18
g74
sg20
(lp84
(lp85
I90
aI91
aI92
aI93
aa(lp86
I16
aI17
aI18
aI19
aasg24
g78
sg26
(I90
I16
tp87
sg28
F3.945650874403567
sba(ilandmark_map
Landmark
p88
(dp89
g7
(lp90
F69.45993747531436
aF7.459937475314367
asg9
g42
sg11
g43
sg13
(F71.91987495062874
F9.919874950628733
tp91
sg15
F4.615622714894544
sg16
g17
sg18
g74
sg20
(lp92
(lp93
I67
aI68
aI69
aI70
aI71
aa(lp94
I5
aI6
aI7
aI8
aI9
aasg24
g78
sg26
(I67
I5
tp95
sg28
F4.919874950628733
sba(ilandmark_map
Landmark
p96
(dp97
g7
(lp98
F92.32346266690931
aF79.32346266690931
asg9
g62
sg11
Nsg13
(F95.6469253338186
F82.6469253338186
tp99
sg15
F4.9016538956441815
sg16
Nsg18
g53
sg20
(lp100
(lp101
I89
aI90
aI91
aI92
aI93
aI94
aI95
aa(lp102
I76
aI77
aI78
aI79
aI80
aI81
aI82
aasg24
g57
sg26
(I89
I76
tp103
sg28
F6.646925333818605
sba(ilandmark_map
Landmark
p104
(dp105
g7
(lp106
F12.36523758139886
aF68.36523758139886
asg9
g42
sg11
Nsg13
(F13.73047516279772
F69.73047516279772
tp107
sg15
F8.406874579984175
sg16
Nsg18
g53
sg20
(lp108
(lp109
I11
aI12
aI13
aa(lp110
I67
aI68
aI69
aasg24
g57
sg26
(I11
I67
tp111
sg28
F2.7304751627977195
sba(ilandmark_map
Landmark
p112
(dp113
g7
(lp114
F67.4821757919757
aF18.482175791975706
asg9
g42
sg11
g43
sg13
(F68.96435158395141
F19.964351583951416
tp115
sg15
F5.242409369063204
sg16
g17
sg18
S'rock'
p116
sg20
(lp117
(lp118
I66
aI67
aI68
aa(lp119
I17
aI18
aI19
aasg24
S'D'
p120
sg26
(I66
I17
tp121
sg28
F2.964351583951416
sba(ilandmark_map
Landmark
p122
(dp123
g7
(lp124
F36.18810871744083
aF37.18810871744083
asg9
g42
sg11
g71
sg13
(F39.37621743488165
F40.37621743488165
tp125
sg15
F8.83010106870876
sg16
g34
sg18
g74
sg20
(lp126
(lp127
I33
aI34
aI35
aI36
aI37
aI38
aa(lp128
I34
aI35
aI36
aI37
aI38
aI39
aasg24
g78
sg26
(I33
I34
tp129
sg28
F6.376217434881653
sba(ilandmark_map
Landmark
p130
(dp131
g7
(lp132
F36.29611606076238
aF81.29611606076237
asg9
g32
sg11
Nsg13
(F38.59223212152475
F83.59223212152476
tp133
sg15
F4.03702870879502
sg16
Nsg18
g116
sg20
(lp134
(lp135
I34
aI35
aI36
aI37
aI38
aa(lp136
I79
aI80
aI81
aI82
aI83
aasg24
g120
sg26
(I34
I79
tp137
sg28
F4.592232121524755
sba(ilandmark_map
Landmark
p138
(dp139
g7
(lp140
F26.58921951989196
aF8.589219519891959
asg9
g42
sg11
g43
sg13
(F29.178439039783918
F11.178439039783918
tp141
sg15
I1
sg16
g73
sg18
g19
sg20
(lp142
(lp143
I24
aI25
aI26
aI27
aI28
aa(lp144
I6
aI7
aI8
aI9
aI10
aasg24
g25
sg26
(I24
I6
tp145
sg28
F5.178439039783917
sba(ilandmark_map
Landmark
p146
(dp147
g7
(lp148
F40.77192328473515
aF7.771923284735154
asg9
g62
sg11
g71
sg13
(F43.543846569470304
F10.543846569470308
tp149
sg15
F7.886827046461127
sg16
g73
sg18
g116
sg20
(lp150
(lp151
I38
aI39
aI40
aI41
aI42
aI43
aa(lp152
I5
aI6
aI7
aI8
aI9
aI10
aasg24
g120
sg26
(I38
I5
tp153
sg28
F5.543846569470308
sba(ilandmark_map
Landmark
p154
(dp155
g7
(lp156
F31.390202651354905
aF66.3902026513549
asg9
g42
sg11
Nsg13
(F33.78040530270981
F68.78040530270981
tp157
sg15
F4.716698869341299
sg16
Nsg18
g53
sg20
(lp158
(lp159
I29
aI30
aI31
aI32
aI33
aa(lp160
I64
aI65
aI66
aI67
aI68
aasg24
g57
sg26
(I29
I64
tp161
sg28
F4.780405302709807
sba(ilandmark_map
Landmark
p162
(dp163
g7
(lp164
F76.32059984011725
aF58.32059984011725
asg9
g42
sg11
Nsg13
(F79.6411996802345
F61.6411996802345
tp165
sg15
F5.664251510586378
sg16
Nsg18
g116
sg20
(lp166
(lp167
I73
aI74
aI75
aI76
aI77
aI78
aI79
aa(lp168
I55
aI56
aI57
aI58
aI59
aI60
aI61
aasg24
g120
sg26
(I73
I55
tp169
sg28
F6.6411996802344975
sba(ilandmark_map
Landmark
p170
(dp171
g7
(lp172
F39.08436506099938
aF30.08436506099938
asg9
g10
sg11
g71
sg13
(F42.16873012199876
F33.16873012199876
tp173
sg15
F5.189327491523398
sg16
g34
sg18
g116
sg20
(lp174
(lp175
I36
aI37
aI38
aI39
aI40
aI41
aa(lp176
I27
aI28
aI29
aI30
aI31
aI32
aasg24
g120
sg26
(I36
I27
tp177
sg28
F6.168730121998767
sbasg15
I100
sb.